; Function Attrs: nounwind uwtable
define ptr @l_Lake_BuildType_leanOptions___boxed(ptr noundef %0) local_unnamed_addr #1 {
  %2 = ptrtoint ptr %0 to i64
  %3 = and i64 %2, 1
  %.not = icmp eq i64 %3, 0
  br i1 %.not, label %4, label %lean_dec.exit

4:                                                ; preds = %1
  %5 = load i32, ptr %0, align 4, !tbaa !4
  %6 = icmp sgt i32 %5, 1
  br i1 %6, label %7, label %9, !prof !9

7:                                                ; preds = %4
  %8 = add nsw i32 %5, -1
  store i32 %8, ptr %0, align 4, !tbaa !4
  br label %lean_dec.exit

9:                                                ; preds = %4
  %.not.i = icmp eq i32 %5, 0
  br i1 %.not.i, label %lean_dec.exit, label %10

10:                                               ; preds = %9
  tail call void @lean_dec_ref_cold(ptr noundef nonnull %0) #8
  br label %lean_dec.exit

lean_dec.exit:                                    ; preds = %10, %9, %7, %1
  %11 = and i64 %2, 510
  %12 = icmp eq i64 %11, 0
  %l_Lake_BuildType_leanOptions___closed__6.val.i = load ptr, ptr @l_Lake_BuildType_leanOptions___closed__6, align 8
  %l_Lake_LeanConfig_leanOptions___proj___elambda__1___closed__1.val.i = load ptr, ptr @l_Lake_LeanConfig_leanOptions___proj___elambda__1___closed__1, align 8
  %.0.i = select i1 %12, ptr %l_Lake_BuildType_leanOptions___closed__6.val.i, ptr %l_Lake_LeanConfig_leanOptions___proj___elambda__1___closed__1.val.i
  ret ptr %.0.i
}